
env.cpp.elf:     file format elf32-avr


Disassembly of section .text:

00000000 <__vectors>:
   0:	1e c0       	rjmp	.+60     	; 0x3e <__ctors_end>
   2:	2d c0       	rjmp	.+90     	; 0x5e <__bad_interrupt>
   4:	2c c0       	rjmp	.+88     	; 0x5e <__bad_interrupt>
   6:	2b c0       	rjmp	.+86     	; 0x5e <__bad_interrupt>
   8:	2a c0       	rjmp	.+84     	; 0x5e <__bad_interrupt>
   a:	c5 c0       	rjmp	.+394    	; 0x196 <__vector_5>
   c:	28 c0       	rjmp	.+80     	; 0x5e <__bad_interrupt>
   e:	27 c0       	rjmp	.+78     	; 0x5e <__bad_interrupt>
  10:	26 c0       	rjmp	.+76     	; 0x5e <__bad_interrupt>
  12:	25 c0       	rjmp	.+74     	; 0x5e <__bad_interrupt>
  14:	74 c0       	rjmp	.+232    	; 0xfe <__vector_10>
  16:	23 c0       	rjmp	.+70     	; 0x5e <__bad_interrupt>
  18:	22 c0       	rjmp	.+68     	; 0x5e <__bad_interrupt>
  1a:	21 c0       	rjmp	.+66     	; 0x5e <__bad_interrupt>
  1c:	20 c0       	rjmp	.+64     	; 0x5e <__bad_interrupt>

0000001e <__trampolines_end>:
  1e:	01 02       	muls	r16, r17
  20:	04 08       	sbc	r0, r4
  22:	10 20       	and	r1, r0
  24:	20 04       	cpc	r2, r0
  26:	10 08       	sbc	r1, r0

00000028 <digital_pin_to_port_PGM>:
  28:	02 02       	muls	r16, r18
  2a:	02 02       	muls	r16, r18
  2c:	02 02       	muls	r16, r18
  2e:	02 02       	muls	r16, r18
  30:	02 02       	muls	r16, r18

00000032 <port_to_output_PGM>:
  32:	00 00       	nop
  34:	00 00       	nop
  36:	38 00       	.word	0x0038	; ????

00000038 <port_to_mode_PGM>:
  38:	00 00       	nop
  3a:	00 00       	nop
  3c:	37 00       	.word	0x0037	; ????

0000003e <__ctors_end>:
  3e:	11 24       	eor	r1, r1
  40:	1f be       	out	0x3f, r1	; 63
  42:	cf e5       	ldi	r28, 0x5F	; 95
  44:	d2 e0       	ldi	r29, 0x02	; 2
  46:	de bf       	out	0x3e, r29	; 62
  48:	cd bf       	out	0x3d, r28	; 61

0000004a <__do_clear_bss>:
  4a:	20 e0       	ldi	r18, 0x00	; 0
  4c:	a0 e6       	ldi	r26, 0x60	; 96
  4e:	b0 e0       	ldi	r27, 0x00	; 0
  50:	01 c0       	rjmp	.+2      	; 0x54 <.do_clear_bss_start>

00000052 <.do_clear_bss_loop>:
  52:	1d 92       	st	X+, r1

00000054 <.do_clear_bss_start>:
  54:	a1 37       	cpi	r26, 0x71	; 113
  56:	b2 07       	cpc	r27, r18
  58:	e1 f7       	brne	.-8      	; 0x52 <.do_clear_bss_loop>
  5a:	5c d1       	rcall	.+696    	; 0x314 <main>
  5c:	65 c1       	rjmp	.+714    	; 0x328 <_exit>

0000005e <__bad_interrupt>:
  5e:	d0 cf       	rjmp	.-96     	; 0x0 <__vectors>

00000060 <setup>:
  60:	cf 93       	push	r28
  62:	87 b5       	in	r24, 0x27	; 39
  64:	82 60       	ori	r24, 0x02	; 2
  66:	87 bd       	out	0x27, r24	; 39
  68:	84 e6       	ldi	r24, 0x64	; 100
  6a:	90 e0       	ldi	r25, 0x00	; 0
  6c:	de d0       	rcall	.+444    	; 0x22a <delayMicroseconds>
  6e:	07 b4       	in	r0, 0x27	; 39
  70:	00 fe       	sbrs	r0, 0
  72:	fd cf       	rjmp	.-6      	; 0x6e <setup+0xe>
  74:	87 b5       	in	r24, 0x27	; 39
  76:	84 60       	ori	r24, 0x04	; 4
  78:	87 bd       	out	0x27, r24	; 39
  7a:	10 be       	out	0x30, r1	; 48
  7c:	1f bc       	out	0x2f, r1	; 47
  7e:	c2 e0       	ldi	r28, 0x02	; 2
  80:	cc bd       	out	0x2c, r28	; 44
  82:	81 e6       	ldi	r24, 0x61	; 97
  84:	80 bf       	out	0x30, r24	; 48
  86:	8f ef       	ldi	r24, 0xFF	; 255
  88:	8d bd       	out	0x2d, r24	; 45
  8a:	80 e8       	ldi	r24, 0x80	; 128
  8c:	8e bd       	out	0x2e, r24	; 46
  8e:	61 e0       	ldi	r22, 0x01	; 1
  90:	81 e0       	ldi	r24, 0x01	; 1
  92:	07 d1       	rcall	.+526    	; 0x2a2 <pinMode>
  94:	13 be       	out	0x33, r1	; 51
  96:	12 be       	out	0x32, r1	; 50
  98:	ca bd       	out	0x2a, r28	; 42
  9a:	81 e0       	ldi	r24, 0x01	; 1
  9c:	83 bf       	out	0x33, r24	; 51
  9e:	8f e9       	ldi	r24, 0x9F	; 159
  a0:	89 bd       	out	0x29, r24	; 41
  a2:	89 b7       	in	r24, 0x39	; 57
  a4:	80 61       	ori	r24, 0x10	; 16
  a6:	89 bf       	out	0x39, r24	; 57
  a8:	60 e0       	ldi	r22, 0x00	; 0
  aa:	86 e0       	ldi	r24, 0x06	; 6
  ac:	fa d0       	rcall	.+500    	; 0x2a2 <pinMode>
  ae:	60 e0       	ldi	r22, 0x00	; 0
  b0:	87 e0       	ldi	r24, 0x07	; 7
  b2:	f7 d0       	rcall	.+494    	; 0x2a2 <pinMode>
  b4:	60 e0       	ldi	r22, 0x00	; 0
  b6:	88 e0       	ldi	r24, 0x08	; 8
  b8:	f4 d0       	rcall	.+488    	; 0x2a2 <pinMode>
  ba:	60 e0       	ldi	r22, 0x00	; 0
  bc:	89 e0       	ldi	r24, 0x09	; 9
  be:	f1 d0       	rcall	.+482    	; 0x2a2 <pinMode>
  c0:	17 b8       	out	0x07, r1	; 7
  c2:	60 e0       	ldi	r22, 0x00	; 0
  c4:	80 e0       	ldi	r24, 0x00	; 0
  c6:	cf 91       	pop	r28
  c8:	ec c0       	rjmp	.+472    	; 0x2a2 <pinMode>

000000ca <loop>:
  ca:	80 91 60 00 	lds	r24, 0x0060
  ce:	d1 d0       	rcall	.+418    	; 0x272 <analogRead>
  d0:	20 91 60 00 	lds	r18, 0x0060
  d4:	22 30       	cpi	r18, 0x02	; 2
  d6:	39 f0       	breq	.+14     	; 0xe6 <loop+0x1c>
  d8:	23 30       	cpi	r18, 0x03	; 3
  da:	49 f4       	brne	.+18     	; 0xee <loop+0x24>
  dc:	90 93 64 00 	sts	0x0064, r25
  e0:	80 93 63 00 	sts	0x0063, r24
  e4:	04 c0       	rjmp	.+8      	; 0xee <loop+0x24>
  e6:	90 93 62 00 	sts	0x0062, r25
  ea:	80 93 61 00 	sts	0x0061, r24
  ee:	81 e0       	ldi	r24, 0x01	; 1
  f0:	82 0f       	add	r24, r18
  f2:	83 70       	andi	r24, 0x03	; 3
  f4:	80 93 60 00 	sts	0x0060, r24
  f8:	87 b9       	out	0x07, r24	; 7
  fa:	36 9a       	sbi	0x06, 6	; 6
  fc:	08 95       	ret

000000fe <__vector_10>:
  fe:	1f 92       	push	r1
 100:	0f 92       	push	r0
 102:	0f b6       	in	r0, 0x3f	; 63
 104:	0f 92       	push	r0
 106:	11 24       	eor	r1, r1
 108:	2f 93       	push	r18
 10a:	3f 93       	push	r19
 10c:	4f 93       	push	r20
 10e:	5f 93       	push	r21
 110:	8f 93       	push	r24
 112:	9f 93       	push	r25
 114:	80 91 65 00 	lds	r24, 0x0065
 118:	90 91 66 00 	lds	r25, 0x0066
 11c:	b0 9b       	sbis	0x16, 0	; 22
 11e:	14 c0       	rjmp	.+40     	; 0x148 <__vector_10+0x4a>
 120:	20 91 63 00 	lds	r18, 0x0063
 124:	30 91 64 00 	lds	r19, 0x0064
 128:	28 0f       	add	r18, r24
 12a:	39 1f       	adc	r19, r25
 12c:	41 e0       	ldi	r20, 0x01	; 1
 12e:	50 e0       	ldi	r21, 0x00	; 0
 130:	28 17       	cp	r18, r24
 132:	39 07       	cpc	r19, r25
 134:	10 f0       	brcs	.+4      	; 0x13a <__vector_10+0x3c>
 136:	40 e0       	ldi	r20, 0x00	; 0
 138:	50 e0       	ldi	r21, 0x00	; 0
 13a:	88 27       	eor	r24, r24
 13c:	99 27       	eor	r25, r25
 13e:	84 1b       	sub	r24, r20
 140:	95 0b       	sbc	r25, r21
 142:	82 2b       	or	r24, r18
 144:	93 2b       	or	r25, r19
 146:	15 c0       	rjmp	.+42     	; 0x172 <__vector_10+0x74>
 148:	20 91 61 00 	lds	r18, 0x0061
 14c:	30 91 62 00 	lds	r19, 0x0062
 150:	ac 01       	movw	r20, r24
 152:	42 1b       	sub	r20, r18
 154:	53 0b       	sbc	r21, r19
 156:	9a 01       	movw	r18, r20
 158:	41 e0       	ldi	r20, 0x01	; 1
 15a:	50 e0       	ldi	r21, 0x00	; 0
 15c:	82 17       	cp	r24, r18
 15e:	93 07       	cpc	r25, r19
 160:	10 f4       	brcc	.+4      	; 0x166 <__vector_10+0x68>
 162:	40 e0       	ldi	r20, 0x00	; 0
 164:	50 e0       	ldi	r21, 0x00	; 0
 166:	88 27       	eor	r24, r24
 168:	99 27       	eor	r25, r25
 16a:	84 1b       	sub	r24, r20
 16c:	95 0b       	sbc	r25, r21
 16e:	82 23       	and	r24, r18
 170:	93 23       	and	r25, r19
 172:	90 93 66 00 	sts	0x0066, r25
 176:	80 93 65 00 	sts	0x0065, r24
 17a:	80 91 66 00 	lds	r24, 0x0066
 17e:	8e bd       	out	0x2e, r24	; 46
 180:	9f 91       	pop	r25
 182:	8f 91       	pop	r24
 184:	5f 91       	pop	r21
 186:	4f 91       	pop	r20
 188:	3f 91       	pop	r19
 18a:	2f 91       	pop	r18
 18c:	0f 90       	pop	r0
 18e:	0f be       	out	0x3f, r0	; 63
 190:	0f 90       	pop	r0
 192:	1f 90       	pop	r1
 194:	18 95       	reti

00000196 <__vector_5>:
 196:	1f 92       	push	r1
 198:	0f 92       	push	r0
 19a:	0f b6       	in	r0, 0x3f	; 63
 19c:	0f 92       	push	r0
 19e:	11 24       	eor	r1, r1
 1a0:	2f 93       	push	r18
 1a2:	3f 93       	push	r19
 1a4:	8f 93       	push	r24
 1a6:	9f 93       	push	r25
 1a8:	af 93       	push	r26
 1aa:	bf 93       	push	r27
 1ac:	80 91 68 00 	lds	r24, 0x0068
 1b0:	90 91 69 00 	lds	r25, 0x0069
 1b4:	a0 91 6a 00 	lds	r26, 0x006A
 1b8:	b0 91 6b 00 	lds	r27, 0x006B
 1bc:	30 91 67 00 	lds	r19, 0x0067
 1c0:	26 e0       	ldi	r18, 0x06	; 6
 1c2:	23 0f       	add	r18, r19
 1c4:	2d 37       	cpi	r18, 0x7D	; 125
 1c6:	20 f4       	brcc	.+8      	; 0x1d0 <__vector_5+0x3a>
 1c8:	02 96       	adiw	r24, 0x02	; 2
 1ca:	a1 1d       	adc	r26, r1
 1cc:	b1 1d       	adc	r27, r1
 1ce:	05 c0       	rjmp	.+10     	; 0x1da <__vector_5+0x44>
 1d0:	29 e8       	ldi	r18, 0x89	; 137
 1d2:	23 0f       	add	r18, r19
 1d4:	03 96       	adiw	r24, 0x03	; 3
 1d6:	a1 1d       	adc	r26, r1
 1d8:	b1 1d       	adc	r27, r1
 1da:	20 93 67 00 	sts	0x0067, r18
 1de:	80 93 68 00 	sts	0x0068, r24
 1e2:	90 93 69 00 	sts	0x0069, r25
 1e6:	a0 93 6a 00 	sts	0x006A, r26
 1ea:	b0 93 6b 00 	sts	0x006B, r27
 1ee:	80 91 6c 00 	lds	r24, 0x006C
 1f2:	90 91 6d 00 	lds	r25, 0x006D
 1f6:	a0 91 6e 00 	lds	r26, 0x006E
 1fa:	b0 91 6f 00 	lds	r27, 0x006F
 1fe:	01 96       	adiw	r24, 0x01	; 1
 200:	a1 1d       	adc	r26, r1
 202:	b1 1d       	adc	r27, r1
 204:	80 93 6c 00 	sts	0x006C, r24
 208:	90 93 6d 00 	sts	0x006D, r25
 20c:	a0 93 6e 00 	sts	0x006E, r26
 210:	b0 93 6f 00 	sts	0x006F, r27
 214:	bf 91       	pop	r27
 216:	af 91       	pop	r26
 218:	9f 91       	pop	r25
 21a:	8f 91       	pop	r24
 21c:	3f 91       	pop	r19
 21e:	2f 91       	pop	r18
 220:	0f 90       	pop	r0
 222:	0f be       	out	0x3f, r0	; 63
 224:	0f 90       	pop	r0
 226:	1f 90       	pop	r1
 228:	18 95       	reti

0000022a <delayMicroseconds>:
 22a:	83 30       	cpi	r24, 0x03	; 3
 22c:	91 05       	cpc	r25, r1
 22e:	28 f0       	brcs	.+10     	; 0x23a <delayMicroseconds+0x10>
 230:	88 0f       	add	r24, r24
 232:	99 1f       	adc	r25, r25
 234:	04 97       	sbiw	r24, 0x04	; 4
 236:	01 97       	sbiw	r24, 0x01	; 1
 238:	f1 f7       	brne	.-4      	; 0x236 <delayMicroseconds+0xc>
 23a:	08 95       	ret

0000023c <init>:
 23c:	78 94       	sei
 23e:	8a b5       	in	r24, 0x2a	; 42
 240:	82 60       	ori	r24, 0x02	; 2
 242:	8a bd       	out	0x2a, r24	; 42
 244:	8a b5       	in	r24, 0x2a	; 42
 246:	81 60       	ori	r24, 0x01	; 1
 248:	8a bd       	out	0x2a, r24	; 42
 24a:	83 b7       	in	r24, 0x33	; 51
 24c:	82 60       	ori	r24, 0x02	; 2
 24e:	83 bf       	out	0x33, r24	; 51
 250:	83 b7       	in	r24, 0x33	; 51
 252:	81 60       	ori	r24, 0x01	; 1
 254:	83 bf       	out	0x33, r24	; 51
 256:	89 b7       	in	r24, 0x39	; 57
 258:	82 60       	ori	r24, 0x02	; 2
 25a:	89 bf       	out	0x39, r24	; 57
 25c:	80 b7       	in	r24, 0x30	; 48
 25e:	82 60       	ori	r24, 0x02	; 2
 260:	80 bf       	out	0x30, r24	; 48
 262:	80 b7       	in	r24, 0x30	; 48
 264:	81 60       	ori	r24, 0x01	; 1
 266:	80 bf       	out	0x30, r24	; 48
 268:	32 9a       	sbi	0x06, 2	; 6
 26a:	31 9a       	sbi	0x06, 1	; 6
 26c:	30 98       	cbi	0x06, 0	; 6
 26e:	37 9a       	sbi	0x06, 7	; 6
 270:	08 95       	ret

00000272 <analogRead>:
 272:	86 30       	cpi	r24, 0x06	; 6
 274:	08 f0       	brcs	.+2      	; 0x278 <analogRead+0x6>
 276:	86 50       	subi	r24, 0x06	; 6
 278:	87 70       	andi	r24, 0x07	; 7
 27a:	90 91 70 00 	lds	r25, 0x0070
 27e:	92 95       	swap	r25
 280:	99 0f       	add	r25, r25
 282:	99 0f       	add	r25, r25
 284:	90 7c       	andi	r25, 0xC0	; 192
 286:	98 2b       	or	r25, r24
 288:	97 b9       	out	0x07, r25	; 7
 28a:	36 9a       	sbi	0x06, 6	; 6
 28c:	36 99       	sbic	0x06, 6	; 6
 28e:	fe cf       	rjmp	.-4      	; 0x28c <analogRead+0x1a>
 290:	84 b1       	in	r24, 0x04	; 4
 292:	25 b1       	in	r18, 0x05	; 5
 294:	90 e0       	ldi	r25, 0x00	; 0
 296:	92 2b       	or	r25, r18
 298:	08 95       	ret

0000029a <initVariant>:
 29a:	8c b5       	in	r24, 0x2c	; 44
 29c:	80 64       	ori	r24, 0x40	; 64
 29e:	8c bd       	out	0x2c, r24	; 44
 2a0:	08 95       	ret

000002a2 <pinMode>:
 2a2:	cf 93       	push	r28
 2a4:	df 93       	push	r29
 2a6:	90 e0       	ldi	r25, 0x00	; 0
 2a8:	fc 01       	movw	r30, r24
 2aa:	e2 5e       	subi	r30, 0xE2	; 226
 2ac:	ff 4f       	sbci	r31, 0xFF	; 255
 2ae:	24 91       	lpm	r18, Z
 2b0:	fc 01       	movw	r30, r24
 2b2:	e8 5d       	subi	r30, 0xD8	; 216
 2b4:	ff 4f       	sbci	r31, 0xFF	; 255
 2b6:	84 91       	lpm	r24, Z
 2b8:	88 23       	and	r24, r24
 2ba:	49 f1       	breq	.+82     	; 0x30e <pinMode+0x6c>
 2bc:	90 e0       	ldi	r25, 0x00	; 0
 2be:	88 0f       	add	r24, r24
 2c0:	99 1f       	adc	r25, r25
 2c2:	fc 01       	movw	r30, r24
 2c4:	e8 5c       	subi	r30, 0xC8	; 200
 2c6:	ff 4f       	sbci	r31, 0xFF	; 255
 2c8:	a5 91       	lpm	r26, Z+
 2ca:	b4 91       	lpm	r27, Z
 2cc:	8e 5c       	subi	r24, 0xCE	; 206
 2ce:	9f 4f       	sbci	r25, 0xFF	; 255
 2d0:	fc 01       	movw	r30, r24
 2d2:	c5 91       	lpm	r28, Z+
 2d4:	d4 91       	lpm	r29, Z
 2d6:	9f b7       	in	r25, 0x3f	; 63
 2d8:	61 11       	cpse	r22, r1
 2da:	08 c0       	rjmp	.+16     	; 0x2ec <pinMode+0x4a>
 2dc:	f8 94       	cli
 2de:	8c 91       	ld	r24, X
 2e0:	20 95       	com	r18
 2e2:	82 23       	and	r24, r18
 2e4:	8c 93       	st	X, r24
 2e6:	88 81       	ld	r24, Y
 2e8:	82 23       	and	r24, r18
 2ea:	0a c0       	rjmp	.+20     	; 0x300 <pinMode+0x5e>
 2ec:	62 30       	cpi	r22, 0x02	; 2
 2ee:	51 f4       	brne	.+20     	; 0x304 <pinMode+0x62>
 2f0:	f8 94       	cli
 2f2:	8c 91       	ld	r24, X
 2f4:	32 2f       	mov	r19, r18
 2f6:	30 95       	com	r19
 2f8:	83 23       	and	r24, r19
 2fa:	8c 93       	st	X, r24
 2fc:	88 81       	ld	r24, Y
 2fe:	82 2b       	or	r24, r18
 300:	88 83       	st	Y, r24
 302:	04 c0       	rjmp	.+8      	; 0x30c <pinMode+0x6a>
 304:	f8 94       	cli
 306:	8c 91       	ld	r24, X
 308:	82 2b       	or	r24, r18
 30a:	8c 93       	st	X, r24
 30c:	9f bf       	out	0x3f, r25	; 63
 30e:	df 91       	pop	r29
 310:	cf 91       	pop	r28
 312:	08 95       	ret

00000314 <main>:
 314:	93 df       	rcall	.-218    	; 0x23c <init>
 316:	c1 df       	rcall	.-126    	; 0x29a <initVariant>
 318:	a3 de       	rcall	.-698    	; 0x60 <setup>
 31a:	c0 e0       	ldi	r28, 0x00	; 0
 31c:	d0 e0       	ldi	r29, 0x00	; 0
 31e:	d5 de       	rcall	.-598    	; 0xca <loop>
 320:	20 97       	sbiw	r28, 0x00	; 0
 322:	e9 f3       	breq	.-6      	; 0x31e <main+0xa>
 324:	6d de       	rcall	.-806    	; 0x0 <__vectors>
 326:	fb cf       	rjmp	.-10     	; 0x31e <main+0xa>

00000328 <_exit>:
 328:	f8 94       	cli

0000032a <__stop_program>:
 32a:	ff cf       	rjmp	.-2      	; 0x32a <__stop_program>
